target datalayout = "e-m:e-p270:32:32-p271:32:32-p272:64:64-i64:64-i128:128-f80:128-n8:16:32:64-S128"
target triple = "x86_64-pc-linux-gnu"

%struct.QemuMutex = type { %union.pthread_mutex_t, i8 }
%union.pthread_mutex_t = type { %struct.__pthread_mutex_s }
%struct.__pthread_mutex_s = type { i32, i32, i32, i32, i32, i16, i16, %struct.__pthread_internal_list }
%struct.__pthread_internal_list = type { ptr, ptr }
%struct.BlockJob = type { %struct.Job, i32, i64, %struct.RateLimit, ptr, %struct.Notifier, %struct.Notifier, %struct.Notifier, %struct.Notifier, %struct.Notifier, ptr }
%struct.Job = type { ptr, ptr, ptr, i8, i8, ptr, ptr, %struct.ProgressMeter, ptr, i32, i32, %struct.QEMUTimer, i32, i8, i8, i8, i8, i8, i8, i32, ptr, %struct.NotifierList, %struct.NotifierList, %struct.NotifierList, %struct.NotifierList, %struct.NotifierList, %struct.anon.0, ptr, %struct.anon.1 }
%struct.ProgressMeter = type { i64, i64, %struct.QemuMutex }
%struct.QEMUTimer = type { i64, ptr, ptr, ptr, ptr, i32, i32 }
%struct.NotifierList = type { %struct.anon }
%struct.anon = type { ptr }
%struct.anon.0 = type { ptr, ptr }
%struct.anon.1 = type { ptr, ptr }
%struct.RateLimit = type { %struct.QemuMutex, i64, i64, i64, i64, i64 }
%struct.Notifier = type { ptr, %struct.anon.2 }
%struct.anon.2 = type { ptr, ptr }

@.str = private unnamed_addr constant [22 x i8] c"qemu_in_main_thread()\00", align 1
@.str.1 = private unnamed_addr constant [19 x i8] c"../qemu/blockjob.c\00", align 1
@__PRETTY_FUNCTION__.block_job_next_locked = private unnamed_addr constant [44 x i8] c"BlockJob *block_job_next_locked(BlockJob *)\00", align 1

; Function Attrs: nounwind sspstrong uwtable
define internal zeroext i1 @is_block_job(ptr noundef %0) #0 {
  %2 = alloca ptr, align 8
  store ptr %0, ptr %2, align 8
  %3 = load ptr, ptr %2, align 8
  %4 = call i32 @job_type(ptr noundef %3)
  %5 = icmp eq i32 %4, 3
  br i1 %5, label %18, label %6

6:                                                ; preds = %1
  %7 = load ptr, ptr %2, align 8
  %8 = call i32 @job_type(ptr noundef %7)
  %9 = icmp eq i32 %8, 0
  br i1 %9, label %18, label %10

10:                                               ; preds = %6
  %11 = load ptr, ptr %2, align 8
  %12 = call i32 @job_type(ptr noundef %11)
  %13 = icmp eq i32 %12, 2
  br i1 %13, label %18, label %14

14:                                               ; preds = %10
  %15 = load ptr, ptr %2, align 8
  %16 = call i32 @job_type(ptr noundef %15)
  %17 = icmp eq i32 %16, 1
  br label %18

18:                                               ; preds = %14, %10, %6, %1
  %19 = phi i1 [ true, %10 ], [ true, %6 ], [ true, %1 ], [ %17, %14 ]
  ret i1 %19
}

; Function Attrs: nounwind sspstrong uwtable
define dso_local ptr @block_job_next_locked(ptr noundef %0) #0 {
  %2 = alloca ptr, align 8
  %3 = alloca ptr, align 8
  %4 = alloca ptr, align 8
  %5 = alloca ptr, align 8
  store ptr %0, ptr %2, align 8
  call void @llvm.lifetime.start.p0(i64 8, ptr %3) #12
  %6 = load ptr, ptr %2, align 8
  %7 = icmp ne ptr %6, null
  br i1 %7, label %8, label %11

8:                                                ; preds = %1
  %9 = load ptr, ptr %2, align 8
  %10 = getelementptr inbounds nuw %struct.BlockJob, ptr %9, i32 0, i32 0
  br label %12

11:                                               ; preds = %1
  br label %12

12:                                               ; preds = %11, %8
  %13 = phi ptr [ %10, %8 ], [ null, %11 ]
  store ptr %13, ptr %3, align 8
  br label %14

14:                                               ; preds = %12
  %15 = call zeroext i1 @qemu_in_main_thread()
  br i1 %15, label %16, label %17

16:                                               ; preds = %14
  br label %18

17:                                               ; preds = %14
  call void @__assert_fail(ptr noundef @.str, ptr noundef @.str.1, i32 noundef 50, ptr noundef @__PRETTY_FUNCTION__.block_job_next_locked) #13
  unreachable

18:                                               ; preds = %16
  br label %19

19:                                               ; preds = %18
  br label %20

20:                                               ; preds = %19
  br label %21

21:                                               ; preds = %31, %20
  %22 = load ptr, ptr %3, align 8
  %23 = call ptr @job_next_locked(ptr noundef %22)
  store ptr %23, ptr %3, align 8
  br label %24

24:                                               ; preds = %21
  %25 = load ptr, ptr %3, align 8
  %26 = icmp ne ptr %25, null
  br i1 %26, label %27, label %31

27:                                               ; preds = %24
  %28 = load ptr, ptr %3, align 8
  %29 = call zeroext i1 @is_block_job(ptr noundef %28)
  %30 = xor i1 %29, true
  br label %31

31:                                               ; preds = %27, %24
  %32 = phi i1 [ false, %24 ], [ %30, %27 ]
  br i1 %32, label %21, label %33, !llvm.loop !4

33:                                               ; preds = %31
  %34 = load ptr, ptr %3, align 8
  %35 = icmp ne ptr %34, null
  br i1 %35, label %36, label %41

36:                                               ; preds = %33
  call void @llvm.lifetime.start.p0(i64 8, ptr %4) #12
  %37 = load ptr, ptr %3, align 8
  store ptr %37, ptr %4, align 8
  %38 = load ptr, ptr %4, align 8
  %39 = getelementptr inbounds i8, ptr %38, i64 0
  store ptr %39, ptr %5, align 8
  call void @llvm.lifetime.end.p0(i64 8, ptr %4) #12
  %40 = load ptr, ptr %5, align 8
  br label %42

41:                                               ; preds = %33
  br label %42

42:                                               ; preds = %41, %36
  %43 = phi ptr [ %40, %36 ], [ null, %41 ]
  call void @llvm.lifetime.end.p0(i64 8, ptr %3) #12
  ret ptr %43
}