; Function Attrs: nounwind sspstrong uwtable
define dso_local ptr @block_job_next_locked(ptr noundef %0) local_unnamed_addr #0 {
  %2 = tail call zeroext i1 @qemu_in_main_thread() #8
  br i1 %2, label %.preheader, label %3

3:                                                ; preds = %1
  tail call void @__assert_fail(ptr noundef nonnull @.str, ptr noundef nonnull @.str.1, i32 noundef 50, ptr noundef nonnull @__PRETTY_FUNCTION__.block_job_next_locked) #9
  unreachable

.preheader:                                       ; preds = %1, %is_block_job.exit
  %.0 = phi ptr [ %4, %is_block_job.exit ], [ %0, %1 ]
  %4 = tail call ptr @job_next_locked(ptr noundef %.0) #8
  %.not = icmp eq ptr %4, null
  br i1 %.not, label %.critedge, label %5

5:                                                ; preds = %.preheader
  %6 = tail call i32 @job_type(ptr noundef nonnull %4) #8
  %7 = icmp eq i32 %6, 3
  br i1 %7, label %.critedge, label %8

8:                                                ; preds = %5
  %9 = tail call i32 @job_type(ptr noundef nonnull %4) #8
  %10 = icmp eq i32 %9, 0
  br i1 %10, label %.critedge, label %11

11:                                               ; preds = %8
  %12 = tail call i32 @job_type(ptr noundef nonnull %4) #8
  %13 = icmp eq i32 %12, 2
  br i1 %13, label %.critedge, label %is_block_job.exit

is_block_job.exit:                                ; preds = %11
  %14 = tail call i32 @job_type(ptr noundef nonnull %4) #8
  %15 = icmp eq i32 %14, 1
  br i1 %15, label %.critedge, label %.preheader, !llvm.loop !4

.critedge:                                        ; preds = %5, %8, %11, %.preheader, %is_block_job.exit
  ret ptr %4
}